; ModuleID = '27/2106.c'
source_filename = "27/2106.c"
target datalayout = "e-m:e-p270:32:32-p271:32:32-p272:64:64-i64:64-f80:128-n8:16:32:64-S128"
target triple = "x86_64-pc-linux-gnu"

@.str = private unnamed_addr constant [3 x i8] c"%d\00", align 1
@.str.1 = private unnamed_addr constant [12 x i8] c"%lf %lf %lf\00", align 1
@.str.2 = private unnamed_addr constant [19 x i8] c"x1=%.5lf;x2=%.5lf\0A\00", align 1
@.str.3 = private unnamed_addr constant [13 x i8] c"x1=x2=%.5lf\0A\00", align 1
@.str.4 = private unnamed_addr constant [33 x i8] c"x1=%.5lf+%.5lfi;x2=%.5lf-%.5lfi\0A\00", align 1

; Function Attrs: noinline nounwind uwtable
define dso_local i32 @main() #0 {
  %1 = alloca i32, align 4
  %2 = alloca double, align 8
  %3 = alloca double, align 8
  %4 = alloca double, align 8
  %5 = alloca double, align 8
  %6 = alloca double, align 8
  %7 = alloca double, align 8
  %8 = alloca double, align 8
  %9 = alloca double, align 8
  %10 = alloca i32, align 4
  %11 = alloca i32, align 4
  store i32 0, i32* %1, align 4
  %12 = call i32 (i8*, ...) @__isoc99_scanf(i8* getelementptr inbounds ([3 x i8], [3 x i8]* @.str, i64 0, i64 0), i32* %10)
  store i32 0, i32* %11, align 4
  br label %13

13:                                               ; preds = %112, %0
  %14 = load i32, i32* %11, align 4
  %15 = load i32, i32* %10, align 4
  %16 = icmp slt i32 %14, %15
  br i1 %16, label %17, label %115

17:                                               ; preds = %13
  %18 = call i32 (i8*, ...) @__isoc99_scanf(i8* getelementptr inbounds ([12 x i8], [12 x i8]* @.str.1, i64 0, i64 0), double* %2, double* %3, double* %4)
  %19 = load double, double* %3, align 8
  %20 = load double, double* %3, align 8
  %21 = fmul double %19, %20
  %22 = load double, double* %2, align 8
  %23 = fmul double 4.000000e+00, %22
  %24 = load double, double* %4, align 8
  %25 = fmul double %23, %24
  %26 = fsub double %21, %25
  store double %26, double* %5, align 8
  %27 = load double, double* %3, align 8
  %28 = fcmp oeq double %27, 0.000000e+00
  br i1 %28, label %29, label %32

29:                                               ; preds = %17
  %30 = load double, double* %3, align 8
  %31 = fneg double %30
  store double %31, double* %3, align 8
  br label %32

32:                                               ; preds = %29, %17
  %33 = load double, double* %5, align 8
  %34 = fcmp ogt double %33, 0.000000e+00
  br i1 %34, label %35, label %77

35:                                               ; preds = %32
  %36 = load double, double* %3, align 8
  %37 = fneg double %36
  %38 = load double, double* %3, align 8
  %39 = load double, double* %3, align 8
  %40 = fmul double %38, %39
  %41 = load double, double* %2, align 8
  %42 = fmul double 4.000000e+00, %41
  %43 = load double, double* %4, align 8
  %44 = fmul double %42, %43
  %45 = fsub double %40, %44
  %46 = call double @sqrt(double %45) #3
  %47 = fadd double %37, %46
  %48 = load double, double* %2, align 8
  %49 = fmul double 2.000000e+00, %48
  %50 = fdiv double %47, %49
  store double %50, double* %6, align 8
  %51 = load double, double* %3, align 8
  %52 = fneg double %51
  %53 = load double, double* %3, align 8
  %54 = load double, double* %3, align 8
  %55 = fmul double %53, %54
  %56 = load double, double* %2, align 8
  %57 = fmul double 4.000000e+00, %56
  %58 = load double, double* %4, align 8
  %59 = fmul double %57, %58
  %60 = fsub double %55, %59
  %61 = call double @sqrt(double %60) #3
  %62 = fsub double %52, %61
  %63 = load double, double* %2, align 8
  %64 = fmul double 2.000000e+00, %63
  %65 = fdiv double %62, %64
  store double %65, double* %7, align 8
  %66 = load double, double* %6, align 8
  %67 = load double, double* %7, align 8
  %68 = fcmp olt double %66, %67
  br i1 %68, label %69, label %73

69:                                               ; preds = %35
  %70 = load double, double* %6, align 8
  store double %70, double* %9, align 8
  %71 = load double, double* %7, align 8
  store double %71, double* %6, align 8
  %72 = load double, double* %9, align 8
  store double %72, double* %7, align 8
  br label %73

73:                                               ; preds = %69, %35
  %74 = load double, double* %6, align 8
  %75 = load double, double* %7, align 8
  %76 = call i32 (i8*, ...) @printf(i8* getelementptr inbounds ([19 x i8], [19 x i8]* @.str.2, i64 0, i64 0), double %74, double %75)
  br label %111

77:                                               ; preds = %32
  %78 = load double, double* %5, align 8
  %79 = fcmp oeq double %78, 0.000000e+00
  br i1 %79, label %80, label %88

80:                                               ; preds = %77
  %81 = load double, double* %3, align 8
  %82 = fneg double %81
  %83 = load double, double* %2, align 8
  %84 = fmul double 2.000000e+00, %83
  %85 = fdiv double %82, %84
  store double %85, double* %6, align 8
  %86 = load double, double* %6, align 8
  %87 = call i32 (i8*, ...) @printf(i8* getelementptr inbounds ([13 x i8], [13 x i8]* @.str.3, i64 0, i64 0), double %86)
  br label %110

88:                                               ; preds = %77
  %89 = load double, double* %3, align 8
  %90 = fneg double %89
  %91 = load double, double* %2, align 8
  %92 = fmul double 2.000000e+00, %91
  %93 = fdiv double %90, %92
  store double %93, double* %6, align 8
  %94 = load double, double* %3, align 8
  %95 = fneg double %94
  %96 = load double, double* %2, align 8
  %97 = fmul double 2.000000e+00, %96
  %98 = fdiv double %95, %97
  store double %98, double* %7, align 8
  %99 = load double, double* %5, align 8
  %100 = fneg double %99
  %101 = call double @sqrt(double %100) #3
  %102 = load double, double* %2, align 8
  %103 = fmul double 2.000000e+00, %102
  %104 = fdiv double %101, %103
  store double %104, double* %8, align 8
  %105 = load double, double* %6, align 8
  %106 = load double, double* %8, align 8
  %107 = load double, double* %7, align 8
  %108 = load double, double* %8, align 8
  %109 = call i32 (i8*, ...) @printf(i8* getelementptr inbounds ([33 x i8], [33 x i8]* @.str.4, i64 0, i64 0), double %105, double %106, double %107, double %108)
  br label %110

110:                                              ; preds = %88, %80
  br label %111

111:                                              ; preds = %110, %73
  br label %112

112:                                              ; preds = %111
  %113 = load i32, i32* %11, align 4
  %114 = add nsw i32 %113, 1
  store i32 %114, i32* %11, align 4
  br label %13

115:                                              ; preds = %13
  ret i32 0
}

declare dso_local i32 @__isoc99_scanf(i8*, ...) #1

; Function Attrs: nounwind
declare dso_local double @sqrt(double) #2

declare dso_local i32 @printf(i8*, ...) #1


!llvm.module.flags = !{!0}
!llvm.ident = !{!1}

!0 = !{i32 1, !"wchar_size", i32 4}
!1 = !{!"clang version 10.0.0-4ubuntu1 "}
